target datalayout = "e-m:e-p270:32:32-p271:32:32-p272:64:64-i64:64-i128:128-f80:128-n8:16:32:64-S128"
target triple = "x86_64-pc-linux-gnu"

%class.GrowableArrayBase = type { i32, i32 }
%class.GrowableArrayView.6 = type { %class.GrowableArrayBase, ptr }

@_ZL17old_nmethod_table = internal global ptr null, align 8

; Function Attrs: mustprogress nounwind uwtable
define linkonce_odr hidden void @_ZN17GrowableArrayViewIP7nmethodE9delete_atEi(ptr noundef nonnull align 8 dereferenceable(16) %0, i32 noundef %1) #1 comdat align 2 {
  %3 = alloca ptr, align 8
  %4 = alloca i32, align 4
  store ptr %0, ptr %3, align 8
  store i32 %1, ptr %4, align 4
  %5 = load ptr, ptr %3, align 8
  %6 = load i32, ptr %4, align 4
  %7 = getelementptr inbounds %class.GrowableArrayBase, ptr %5, i32 0, i32 0
  %8 = load i32, ptr %7, align 8
  %9 = add nsw i32 %8, -1
  store i32 %9, ptr %7, align 8
  %10 = icmp slt i32 %6, %9
  br i1 %10, label %11, label %24

11:                                               ; preds = %2
  %12 = getelementptr inbounds %class.GrowableArrayView.6, ptr %5, i32 0, i32 1
  %13 = load ptr, ptr %12, align 8
  %14 = getelementptr inbounds %class.GrowableArrayBase, ptr %5, i32 0, i32 0
  %15 = load i32, ptr %14, align 8
  %16 = sext i32 %15 to i64
  %17 = getelementptr inbounds ptr, ptr %13, i64 %16
  %18 = load ptr, ptr %17, align 8
  %19 = getelementptr inbounds %class.GrowableArrayView.6, ptr %5, i32 0, i32 1
  %20 = load ptr, ptr %19, align 8
  %21 = load i32, ptr %4, align 4
  %22 = sext i32 %21 to i64
  %23 = getelementptr inbounds ptr, ptr %20, i64 %22
  store ptr %18, ptr %23, align 8
  br label %24

24:                                               ; preds = %11, %2
  ret void
}

; Function Attrs: mustprogress nounwind uwtable
define linkonce_odr hidden noundef i32 @_ZNK17GrowableArrayViewIP7nmethodE4findERKS1_(ptr noundef nonnull align 8 dereferenceable(16) %0, ptr noundef nonnull align 8 dereferenceable(8) %1) #1 comdat align 2 {
  %3 = alloca i32, align 4
  %4 = alloca ptr, align 8
  %5 = alloca ptr, align 8
  %6 = alloca i32, align 4
  store ptr %0, ptr %4, align 8
  store ptr %1, ptr %5, align 8
  %7 = load ptr, ptr %4, align 8
  store i32 0, ptr %6, align 4
  br label %8

8:                                                ; preds = %26, %2
  %9 = load i32, ptr %6, align 4
  %10 = getelementptr inbounds %class.GrowableArrayBase, ptr %7, i32 0, i32 0
  %11 = load i32, ptr %10, align 8
  %12 = icmp slt i32 %9, %11
  br i1 %12, label %13, label %29

13:                                               ; preds = %8
  %14 = getelementptr inbounds %class.GrowableArrayView.6, ptr %7, i32 0, i32 1
  %15 = load ptr, ptr %14, align 8
  %16 = load i32, ptr %6, align 4
  %17 = sext i32 %16 to i64
  %18 = getelementptr inbounds ptr, ptr %15, i64 %17
  %19 = load ptr, ptr %18, align 8
  %20 = load ptr, ptr %5, align 8
  %21 = load ptr, ptr %20, align 8
  %22 = icmp eq ptr %19, %21
  br i1 %22, label %23, label %25

23:                                               ; preds = %13
  %24 = load i32, ptr %6, align 4
  store i32 %24, ptr %3, align 4
  br label %30

25:                                               ; preds = %13
  br label %26

26:                                               ; preds = %25
  %27 = load i32, ptr %6, align 4
  %28 = add nsw i32 %27, 1
  store i32 %28, ptr %6, align 4
  br label %8, !llvm.loop !33

29:                                               ; preds = %8
  store i32 -1, ptr %3, align 4
  br label %30

30:                                               ; preds = %29, %23
  %31 = load i32, ptr %3, align 4
  ret i32 %31
}

; Function Attrs: mustprogress nounwind uwtable
define hidden void @_ZN9CodeCache22unregister_old_nmethodEP7nmethod(ptr noundef %0) #1 align 2 {
  %2 = alloca ptr, align 8
  %3 = alloca i32, align 4
  store ptr %0, ptr %2, align 8
  %4 = load ptr, ptr @_ZL17old_nmethod_table, align 8
  %5 = icmp ne ptr %4, null
  br i1 %5, label %6, label %15

6:                                                ; preds = %1
  %7 = load ptr, ptr @_ZL17old_nmethod_table, align 8
  %8 = call noundef i32 @_ZNK17GrowableArrayViewIP7nmethodE4findERKS1_(ptr noundef nonnull align 8 dereferenceable(16) %7, ptr noundef nonnull align 8 dereferenceable(8) %2)
  store i32 %8, ptr %3, align 4
  %9 = load i32, ptr %3, align 4
  %10 = icmp ne i32 %9, -1
  br i1 %10, label %11, label %14

11:                                               ; preds = %6
  %12 = load ptr, ptr @_ZL17old_nmethod_table, align 8
  %13 = load i32, ptr %3, align 4
  call void @_ZN17GrowableArrayViewIP7nmethodE9delete_atEi(ptr noundef nonnull align 8 dereferenceable(16) %12, i32 noundef %13)
  br label %14

14:                                               ; preds = %11, %6
  br label %15

15:                                               ; preds = %14, %1
  ret void
}