; Function Attrs: mustprogress nofree norecurse nosync nounwind memory(readwrite, inaccessiblemem: none) uwtable
define hidden void @_ZN9CodeCache22unregister_old_nmethodEP7nmethod(ptr noundef readnone %0) local_unnamed_addr #11 align 2 {
  %2 = load ptr, ptr @_ZL17old_nmethod_table, align 8
  %.not = icmp eq ptr %2, null
  br i1 %.not, label %_ZN17GrowableArrayViewIP7nmethodE9delete_atEi.exit, label %3

3:                                                ; preds = %1
  %4 = load i32, ptr %2, align 8
  %5 = icmp sgt i32 %4, 0
  br i1 %5, label %.lr.ph.i, label %_ZN17GrowableArrayViewIP7nmethodE9delete_atEi.exit

.lr.ph.i:                                         ; preds = %3
  %6 = getelementptr inbounds i8, ptr %2, i64 8
  %7 = load ptr, ptr %6, align 8
  %wide.trip.count.i = zext nneg i32 %4 to i64
  br label %8

8:                                                ; preds = %12, %.lr.ph.i
  %indvars.iv.i = phi i64 [ 0, %.lr.ph.i ], [ %indvars.iv.next.i, %12 ]
  %9 = getelementptr inbounds ptr, ptr %7, i64 %indvars.iv.i
  %10 = load ptr, ptr %9, align 8
  %11 = icmp eq ptr %10, %0
  br i1 %11, label %_ZNK17GrowableArrayViewIP7nmethodE4findERKS1_.exit, label %12

12:                                               ; preds = %8
  %indvars.iv.next.i = add nuw nsw i64 %indvars.iv.i, 1
  %exitcond.not.i = icmp eq i64 %indvars.iv.next.i, %wide.trip.count.i
  br i1 %exitcond.not.i, label %_ZN17GrowableArrayViewIP7nmethodE9delete_atEi.exit, label %8, !llvm.loop !56

_ZNK17GrowableArrayViewIP7nmethodE4findERKS1_.exit: ; preds = %8
  %13 = trunc nuw nsw i64 %indvars.iv.i to i32
  %14 = add nsw i32 %4, -1
  store i32 %14, ptr %2, align 8
  %15 = icmp sgt i32 %14, %13
  br i1 %15, label %16, label %_ZN17GrowableArrayViewIP7nmethodE9delete_atEi.exit

16:                                               ; preds = %_ZNK17GrowableArrayViewIP7nmethodE4findERKS1_.exit
  %17 = sext i32 %14 to i64
  %18 = getelementptr inbounds ptr, ptr %7, i64 %17
  %19 = load ptr, ptr %18, align 8
  %sext = shl i64 %indvars.iv.i, 32
  %20 = ashr exact i64 %sext, 29
  %21 = getelementptr inbounds i8, ptr %7, i64 %20
  store ptr %19, ptr %21, align 8
  br label %_ZN17GrowableArrayViewIP7nmethodE9delete_atEi.exit

_ZN17GrowableArrayViewIP7nmethodE9delete_atEi.exit: ; preds = %12, %3, %16, %_ZNK17GrowableArrayViewIP7nmethodE4findERKS1_.exit, %1
  ret void
}